target datalayout = "e-m:e-p270:32:32-p271:32:32-p272:64:64-i64:64-i128:128-f80:128-n8:16:32:64-S128"
target triple = "x86_64-pc-linux-gnu"

%struct.alts_record_protocol_crypter = type { %struct.alts_crypter, ptr, ptr }
%struct.alts_crypter = type { ptr }

@__const._Z17increment_counterP28alts_record_protocol_crypterPPc.error_msg = private unnamed_addr constant [90 x i8] c"crypter counter is wrapped. The connectionshould be closed and the key should be deleted.\00", align 16

; Function Attrs: mustprogress uwtable
define internal void @_ZL20maybe_copy_error_msgPKcPPc(ptr noundef %0, ptr noundef %1) #0 {
  %3 = alloca ptr, align 8
  %4 = alloca ptr, align 8
  store ptr %0, ptr %3, align 8, !tbaa !8
  store ptr %1, ptr %4, align 8, !tbaa !12
  %5 = load ptr, ptr %4, align 8, !tbaa !12
  %6 = icmp ne ptr %5, null
  br i1 %6, label %7, label %22

7:                                                ; preds = %2
  %8 = load ptr, ptr %3, align 8, !tbaa !8
  %9 = icmp ne ptr %8, null
  br i1 %9, label %10, label %22

10:                                               ; preds = %7
  %11 = load ptr, ptr %3, align 8, !tbaa !8
  %12 = call i64 @strlen(ptr noundef %11) #5
  %13 = add i64 %12, 1
  %14 = call ptr @gpr_malloc(i64 noundef %13)
  %15 = load ptr, ptr %4, align 8, !tbaa !12
  store ptr %14, ptr %15, align 8, !tbaa !8
  %16 = load ptr, ptr %4, align 8, !tbaa !12
  %17 = load ptr, ptr %16, align 8, !tbaa !8
  %18 = load ptr, ptr %3, align 8, !tbaa !8
  %19 = load ptr, ptr %3, align 8, !tbaa !8
  %20 = call i64 @strlen(ptr noundef %19) #5
  %21 = add i64 %20, 1
  call void @llvm.memcpy.p0.p0.i64(ptr align 1 %17, ptr align 1 %18, i64 %21, i1 false)
  br label %22

22:                                               ; preds = %10, %7, %2
  ret void
}

; Function Attrs: mustprogress uwtable
define noundef i32 @_Z17increment_counterP28alts_record_protocol_crypterPPc(ptr noundef %0, ptr noundef %1) #0 {
  %3 = alloca i32, align 4
  %4 = alloca ptr, align 8
  %5 = alloca ptr, align 8
  %6 = alloca i8, align 1
  %7 = alloca i32, align 4
  %8 = alloca i32, align 4
  %9 = alloca [90 x i8], align 16
  store ptr %0, ptr %4, align 8, !tbaa !3
  store ptr %1, ptr %5, align 8, !tbaa !12
  call void @llvm.lifetime.start.p0(i64 1, ptr %6) #6
  store i8 0, ptr %6, align 1, !tbaa !15
  call void @llvm.lifetime.start.p0(i64 4, ptr %7) #6
  %10 = load ptr, ptr %4, align 8, !tbaa !3
  %11 = getelementptr inbounds nuw %struct.alts_record_protocol_crypter, ptr %10, i32 0, i32 2
  %12 = load ptr, ptr %11, align 8, !tbaa !17
  %13 = load ptr, ptr %5, align 8, !tbaa !12
  %14 = call noundef i32 @_Z22alts_counter_incrementP12alts_counterPbPPc(ptr noundef %12, ptr noundef %6, ptr noundef %13)
  store i32 %14, ptr %7, align 4, !tbaa !23
  %15 = load i32, ptr %7, align 4, !tbaa !23
  %16 = icmp ne i32 %15, 0
  br i1 %16, label %17, label %19

17:                                               ; preds = %2
  %18 = load i32, ptr %7, align 4, !tbaa !23
  store i32 %18, ptr %3, align 4
  store i32 1, ptr %8, align 4
  br label %26

19:                                               ; preds = %2
  %20 = load i8, ptr %6, align 1, !tbaa !15, !range !25, !noundef !26
  %21 = trunc i8 %20 to i1
  br i1 %21, label %22, label %25

22:                                               ; preds = %19
  call void @llvm.lifetime.start.p0(i64 90, ptr %9) #6
  call void @llvm.memcpy.p0.p0.i64(ptr align 16 %9, ptr align 16 @__const._Z17increment_counterP28alts_record_protocol_crypterPPc.error_msg, i64 90, i1 false)
  %23 = getelementptr inbounds [90 x i8], ptr %9, i64 0, i64 0
  %24 = load ptr, ptr %5, align 8, !tbaa !12
  call void @_ZL20maybe_copy_error_msgPKcPPc(ptr noundef %23, ptr noundef %24)
  store i32 13, ptr %3, align 4
  store i32 1, ptr %8, align 4
  call void @llvm.lifetime.end.p0(i64 90, ptr %9) #6
  br label %26

25:                                               ; preds = %19
  store i32 0, ptr %3, align 4
  store i32 1, ptr %8, align 4
  br label %26

26:                                               ; preds = %25, %22, %17
  call void @llvm.lifetime.end.p0(i64 4, ptr %7) #6
  call void @llvm.lifetime.end.p0(i64 1, ptr %6) #6
  %27 = load i32, ptr %3, align 4
  ret i32 %27
}