; Function Attrs: mustprogress uwtable
define noundef i32 @_Z17increment_counterP28alts_record_protocol_crypterPPc(ptr noundef readonly captures(none) %0, ptr noundef %1) local_unnamed_addr #0 {
  %3 = alloca i8, align 1
  call void @llvm.lifetime.start.p0(i64 1, ptr nonnull %3) #4
  store i8 0, ptr %3, align 1, !tbaa !8
  %4 = getelementptr inbounds nuw i8, ptr %0, i64 16
  %5 = load ptr, ptr %4, align 8, !tbaa !10
  %6 = call noundef i32 @_Z22alts_counter_incrementP12alts_counterPbPPc(ptr noundef %5, ptr noundef nonnull %3, ptr noundef %1)
  %.not = icmp eq i32 %6, 0
  br i1 %.not, label %7, label %_ZL20maybe_copy_error_msgPKcPPc.exit

7:                                                ; preds = %2
  %8 = load i8, ptr %3, align 1, !tbaa !8, !range !16, !noundef !17
  %9 = trunc nuw i8 %8 to i1
  br i1 %9, label %10, label %_ZL20maybe_copy_error_msgPKcPPc.exit

10:                                               ; preds = %7
  %.not6 = icmp eq ptr %1, null
  br i1 %.not6, label %_ZL20maybe_copy_error_msgPKcPPc.exit, label %11

11:                                               ; preds = %10
  %12 = call ptr @gpr_malloc(i64 noundef 90)
  store ptr %12, ptr %1, align 8, !tbaa !3
  call void @llvm.memcpy.p0.p0.i64(ptr noundef nonnull align 1 dereferenceable(90) %12, ptr noundef nonnull readonly align 16 dereferenceable(90) @__const._Z17increment_counterP28alts_record_protocol_crypterPPc.error_msg, i64 90, i1 false)
  br label %_ZL20maybe_copy_error_msgPKcPPc.exit

_ZL20maybe_copy_error_msgPKcPPc.exit:             ; preds = %11, %10, %7, %2
  %.0 = phi i32 [ %6, %2 ], [ 0, %7 ], [ 13, %10 ], [ 13, %11 ]
  call void @llvm.lifetime.end.p0(i64 1, ptr nonnull %3) #4
  ret i32 %.0
}